target datalayout = "e-m:e-p270:32:32-p271:32:32-p272:64:64-i64:64-i128:128-f80:128-n8:16:32:64-S128"
target triple = "x86_64-pc-linux-gnu"

%struct.HeapTupleData = type { i32, %struct.ItemPointerData, i32, ptr }
%struct.ItemPointerData = type { %struct.BlockIdData, i16 }
%struct.BlockIdData = type { i16, i16 }
%struct.HeapTupleHeaderData = type { %union.anon, %struct.ItemPointerData, i16, i16, i8, [0 x i8] }
%union.anon = type { %struct.HeapTupleFields }
%struct.HeapTupleFields = type { i32, i32, %union.anon.0 }
%union.anon.0 = type { i32 }
%struct.nameData = type { [64 x i8] }
%struct.FormData_pg_type = type { i32, %struct.nameData, i32, i32, i16, i8, i8, i8, i8, i8, i8, i32, i32, i32, i32, i32, i32, i32, i32, i32, i32, i32, i8, i8, i8, i32, i32, i32, i32 }

@.str.1 = private unnamed_addr constant [12 x i8] c"lsyscache.c\00", align 1
@.str.13 = private unnamed_addr constant [32 x i8] c"cache lookup failed for type %u\00", align 1
@__func__.get_typdefault = private unnamed_addr constant [15 x i8] c"get_typdefault\00", align 1

; Function Attrs: nounwind uwtable
define dso_local i32 @getTypeIOParam(ptr noundef %0) #0 {
  %2 = alloca i32, align 4
  %3 = alloca ptr, align 8
  %4 = alloca ptr, align 8
  %5 = alloca i32, align 4
  store ptr %0, ptr %3, align 8
  call void @llvm.lifetime.start.p0(i64 8, ptr %4) #7
  %6 = load ptr, ptr %3, align 8
  %7 = call ptr @GETSTRUCT(ptr noundef %6)
  store ptr %7, ptr %4, align 8
  %8 = load ptr, ptr %4, align 8
  %9 = getelementptr inbounds nuw %struct.FormData_pg_type, ptr %8, i32 0, i32 13
  %10 = load i32, ptr %9, align 4
  %11 = icmp ne i32 %10, 0
  br i1 %11, label %12, label %16

12:                                               ; preds = %1
  %13 = load ptr, ptr %4, align 8
  %14 = getelementptr inbounds nuw %struct.FormData_pg_type, ptr %13, i32 0, i32 13
  %15 = load i32, ptr %14, align 4
  store i32 %15, ptr %2, align 4
  store i32 1, ptr %5, align 4
  br label %20

16:                                               ; preds = %1
  %17 = load ptr, ptr %4, align 8
  %18 = getelementptr inbounds nuw %struct.FormData_pg_type, ptr %17, i32 0, i32 0
  %19 = load i32, ptr %18, align 4
  store i32 %19, ptr %2, align 4
  store i32 1, ptr %5, align 4
  br label %20

20:                                               ; preds = %16, %12
  call void @llvm.lifetime.end.p0(i64 8, ptr %4) #7
  %21 = load i32, ptr %2, align 4
  ret i32 %21
}

; Function Attrs: inlinehint nounwind uwtable
define internal ptr @DatumGetPointer(i64 noundef %0) #2 {
  %2 = alloca i64, align 8
  store i64 %0, ptr %2, align 8
  %3 = load i64, ptr %2, align 8
  %4 = inttoptr i64 %3 to ptr
  ret ptr %4
}

; Function Attrs: inlinehint nounwind uwtable
define internal ptr @GETSTRUCT(ptr noundef %0) #2 {
  %2 = alloca ptr, align 8
  store ptr %0, ptr %2, align 8
  %3 = load ptr, ptr %2, align 8
  %4 = getelementptr inbounds nuw %struct.HeapTupleData, ptr %3, i32 0, i32 3
  %5 = load ptr, ptr %4, align 8
  %6 = load ptr, ptr %2, align 8
  %7 = getelementptr inbounds nuw %struct.HeapTupleData, ptr %6, i32 0, i32 3
  %8 = load ptr, ptr %7, align 8
  %9 = getelementptr inbounds nuw %struct.HeapTupleHeaderData, ptr %8, i32 0, i32 4
  %10 = load i8, ptr %9, align 2
  %11 = zext i8 %10 to i32
  %12 = sext i32 %11 to i64
  %13 = getelementptr inbounds i8, ptr %5, i64 %12
  ret ptr %13
}

; Function Attrs: inlinehint nounwind uwtable
define internal i64 @ObjectIdGetDatum(i32 noundef %0) #2 {
  %2 = alloca i32, align 4
  store i32 %0, ptr %2, align 4
  %3 = load i32, ptr %2, align 4
  %4 = zext i32 %3 to i64
  ret i64 %4
}

; Function Attrs: nounwind uwtable
define dso_local ptr @get_typdefault(i32 noundef %0) #0 {
  %2 = alloca i32, align 4
  %3 = alloca ptr, align 8
  %4 = alloca ptr, align 8
  %5 = alloca i64, align 8
  %6 = alloca i8, align 1
  %7 = alloca ptr, align 8
  %8 = alloca ptr, align 8
  store i32 %0, ptr %2, align 4
  call void @llvm.lifetime.start.p0(i64 8, ptr %3) #7
  call void @llvm.lifetime.start.p0(i64 8, ptr %4) #7
  call void @llvm.lifetime.start.p0(i64 8, ptr %5) #7
  call void @llvm.lifetime.start.p0(i64 1, ptr %6) #7
  call void @llvm.lifetime.start.p0(i64 8, ptr %7) #7
  %9 = load i32, ptr %2, align 4
  %10 = call i64 @ObjectIdGetDatum(i32 noundef %9)
  %11 = call ptr @SearchSysCache1(i32 noundef 82, i64 noundef %10)
  store ptr %11, ptr %3, align 8
  %12 = load ptr, ptr %3, align 8
  %13 = icmp ne ptr %12, null
  br i1 %13, label %26, label %14

14:                                               ; preds = %1
  br label %15

15:                                               ; preds = %14
  br i1 true, label %16, label %18

16:                                               ; preds = %15
  %17 = call zeroext i1 @errstart_cold(i32 noundef 21, ptr noundef null) #8
  br i1 %17, label %20, label %23

18:                                               ; preds = %15
  %19 = call zeroext i1 @errstart(i32 noundef 21, ptr noundef null)
  br i1 %19, label %20, label %23

20:                                               ; preds = %18, %16
  %21 = load i32, ptr %2, align 4
  %22 = call i32 (ptr, ...) @errmsg_internal(ptr noundef @.str.13, i32 noundef %21)
  call void @errfinish(ptr noundef @.str.1, i32 noundef 2485, ptr noundef @__func__.get_typdefault)
  br label %23

23:                                               ; preds = %20, %18, %16
  unreachable

24:                                               ; No predecessors!
  br label %25

25:                                               ; preds = %24
  br label %26

26:                                               ; preds = %25, %1
  %27 = load ptr, ptr %3, align 8
  %28 = call ptr @GETSTRUCT(ptr noundef %27)
  store ptr %28, ptr %4, align 8
  %29 = load ptr, ptr %3, align 8
  %30 = call i64 @SysCacheGetAttr(i32 noundef 82, ptr noundef %29, i16 noundef signext 30, ptr noundef %6)
  store i64 %30, ptr %5, align 8
  %31 = load i8, ptr %6, align 1, !range !4, !noundef !5
  %32 = trunc i8 %31 to i1
  br i1 %32, label %38, label %33

33:                                               ; preds = %26
  %34 = load i64, ptr %5, align 8
  %35 = call ptr @DatumGetPointer(i64 noundef %34)
  %36 = call ptr @text_to_cstring(ptr noundef %35)
  %37 = call ptr @stringToNode(ptr noundef %36)
  store ptr %37, ptr %7, align 8
  br label %71

38:                                               ; preds = %26
  %39 = load ptr, ptr %3, align 8
  %40 = call i64 @SysCacheGetAttr(i32 noundef 82, ptr noundef %39, i16 noundef signext 31, ptr noundef %6)
  store i64 %40, ptr %5, align 8
  %41 = load i8, ptr %6, align 1, !range !4, !noundef !5
  %42 = trunc i8 %41 to i1
  br i1 %42, label %69, label %43

43:                                               ; preds = %38
  call void @llvm.lifetime.start.p0(i64 8, ptr %8) #7
  %44 = load i64, ptr %5, align 8
  %45 = call ptr @DatumGetPointer(i64 noundef %44)
  %46 = call ptr @text_to_cstring(ptr noundef %45)
  store ptr %46, ptr %8, align 8
  %47 = load ptr, ptr %4, align 8
  %48 = getelementptr inbounds nuw %struct.FormData_pg_type, ptr %47, i32 0, i32 15
  %49 = load i32, ptr %48, align 4
  %50 = load ptr, ptr %8, align 8
  %51 = load ptr, ptr %3, align 8
  %52 = call i32 @getTypeIOParam(ptr noundef %51)
  %53 = call i64 @OidInputFunctionCall(i32 noundef %49, ptr noundef %50, i32 noundef %52, i32 noundef -1)
  store i64 %53, ptr %5, align 8
  %54 = load i32, ptr %2, align 4
  %55 = load ptr, ptr %4, align 8
  %56 = getelementptr inbounds nuw %struct.FormData_pg_type, ptr %55, i32 0, i32 28
  %57 = load i32, ptr %56, align 4
  %58 = load ptr, ptr %4, align 8
  %59 = getelementptr inbounds nuw %struct.FormData_pg_type, ptr %58, i32 0, i32 4
  %60 = load i16, ptr %59, align 4
  %61 = sext i16 %60 to i32
  %62 = load i64, ptr %5, align 8
  %63 = load ptr, ptr %4, align 8
  %64 = getelementptr inbounds nuw %struct.FormData_pg_type, ptr %63, i32 0, i32 5
  %65 = load i8, ptr %64, align 2, !range !4, !noundef !5
  %66 = trunc i8 %65 to i1
  %67 = call ptr @makeConst(i32 noundef %54, i32 noundef -1, i32 noundef %57, i32 noundef %61, i64 noundef %62, i1 noundef zeroext false, i1 noundef zeroext %66)
  store ptr %67, ptr %7, align 8
  %68 = load ptr, ptr %8, align 8
  call void @pfree(ptr noundef %68)
  call void @llvm.lifetime.end.p0(i64 8, ptr %8) #7
  br label %70

69:                                               ; preds = %38
  store ptr null, ptr %7, align 8
  br label %70

70:                                               ; preds = %69, %43
  br label %71

71:                                               ; preds = %70, %33
  %72 = load ptr, ptr %3, align 8
  call void @ReleaseSysCache(ptr noundef %72)
  %73 = load ptr, ptr %7, align 8
  call void @llvm.lifetime.end.p0(i64 8, ptr %7) #7
  call void @llvm.lifetime.end.p0(i64 1, ptr %6) #7
  call void @llvm.lifetime.end.p0(i64 8, ptr %5) #7
  call void @llvm.lifetime.end.p0(i64 8, ptr %4) #7
  call void @llvm.lifetime.end.p0(i64 8, ptr %3) #7
  ret ptr %73
}