; Function Attrs: nounwind uwtable
define dso_local ptr @get_typdefault(i32 noundef %0) local_unnamed_addr #0 {
  %2 = alloca i8, align 1
  call void @llvm.lifetime.start.p0(i64 1, ptr nonnull %2) #8
  %3 = zext i32 %0 to i64
  %4 = tail call ptr @SearchSysCache1(i32 noundef 82, i64 noundef %3) #8
  %.not = icmp eq ptr %4, null
  br i1 %.not, label %5, label %8

5:                                                ; preds = %1
  %6 = tail call zeroext i1 @errstart_cold(i32 noundef 21, ptr noundef null) #9
  tail call void @llvm.assume(i1 %6)
  %7 = tail call i32 (ptr, ...) @errmsg_internal(ptr noundef nonnull @.str.13, i32 noundef %0) #8
  tail call void @errfinish(ptr noundef nonnull @.str.1, i32 noundef 2485, ptr noundef nonnull @__func__.get_typdefault) #8
  unreachable

8:                                                ; preds = %1
  %9 = getelementptr i8, ptr %4, i64 16
  %.val = load ptr, ptr %9, align 8
  %10 = getelementptr inbounds nuw i8, ptr %.val, i64 22
  %11 = load i8, ptr %10, align 2
  %12 = zext i8 %11 to i64
  %13 = getelementptr inbounds nuw i8, ptr %.val, i64 %12
  %14 = call i64 @SysCacheGetAttr(i32 noundef 82, ptr noundef nonnull %4, i16 noundef signext 30, ptr noundef nonnull %2) #8
  %15 = load i8, ptr %2, align 1, !range !14, !noundef !15
  %16 = trunc nuw i8 %15 to i1
  br i1 %16, label %21, label %17

17:                                               ; preds = %8
  %18 = inttoptr i64 %14 to ptr
  %19 = call ptr @text_to_cstring(ptr noundef %18) #8
  %20 = call ptr @stringToNode(ptr noundef %19) #8
  br label %48

21:                                               ; preds = %8
  %22 = call i64 @SysCacheGetAttr(i32 noundef 82, ptr noundef nonnull %4, i16 noundef signext 31, ptr noundef nonnull %2) #8
  %23 = load i8, ptr %2, align 1, !range !14, !noundef !15
  %24 = trunc nuw i8 %23 to i1
  br i1 %24, label %48, label %25

25:                                               ; preds = %21
  %26 = inttoptr i64 %22 to ptr
  %27 = call ptr @text_to_cstring(ptr noundef %26) #8
  %28 = getelementptr inbounds nuw i8, ptr %13, i64 100
  %29 = load i32, ptr %28, align 4
  %.val.i = load ptr, ptr %9, align 8
  %30 = getelementptr inbounds nuw i8, ptr %.val.i, i64 22
  %31 = load i8, ptr %30, align 2
  %32 = zext i8 %31 to i64
  %33 = getelementptr inbounds nuw i8, ptr %.val.i, i64 %32
  %34 = getelementptr inbounds nuw i8, ptr %33, i64 92
  %35 = load i32, ptr %34, align 4
  %.not.i = icmp eq i32 %35, 0
  br i1 %.not.i, label %36, label %getTypeIOParam.exit

36:                                               ; preds = %25
  %37 = load i32, ptr %33, align 4
  br label %getTypeIOParam.exit

getTypeIOParam.exit:                              ; preds = %25, %36
  %.0.i = phi i32 [ %37, %36 ], [ %35, %25 ]
  %38 = call i64 @OidInputFunctionCall(i32 noundef %29, ptr noundef %27, i32 noundef %.0.i, i32 noundef -1) #8
  %39 = getelementptr inbounds nuw i8, ptr %13, i64 144
  %40 = load i32, ptr %39, align 4
  %41 = getelementptr inbounds nuw i8, ptr %13, i64 76
  %42 = load i16, ptr %41, align 4
  %43 = sext i16 %42 to i32
  %44 = getelementptr inbounds nuw i8, ptr %13, i64 78
  %45 = load i8, ptr %44, align 2, !range !14, !noundef !15
  %46 = trunc nuw i8 %45 to i1
  %47 = call ptr @makeConst(i32 noundef %0, i32 noundef -1, i32 noundef %40, i32 noundef %43, i64 noundef %38, i1 noundef zeroext false, i1 noundef zeroext %46) #8
  call void @pfree(ptr noundef %27) #8
  br label %48

48:                                               ; preds = %21, %getTypeIOParam.exit, %17
  %.0 = phi ptr [ %47, %getTypeIOParam.exit ], [ %20, %17 ], [ null, %21 ]
  call void @ReleaseSysCache(ptr noundef nonnull %4) #8
  call void @llvm.lifetime.end.p0(i64 1, ptr nonnull %2) #8
  ret ptr %.0
}